target datalayout = "e-m:e-p270:32:32-p271:32:32-p272:64:64-i64:64-i128:128-f80:128-n8:16:32:64-S128"
target triple = "x86_64-pc-linux-gnu"

%struct.ssl_connection_st = type { %struct.ssl_st, ptr, i32, ptr, ptr, ptr, i32, ptr, i32, i32, i32, i32, %struct.OSSL_TIME, %struct.OSSL_TIME, %struct.ossl_statem_st, i32, ptr, ptr, i64, i64, i64, %struct.ossl_quic_tls_callbacks_st, ptr, ptr, %struct.anon, ptr, ptr, ptr, i32, ptr, %struct.ssl_dane_st, ptr, ptr, ptr, ptr, i32, [64 x i8], [64 x i8], [64 x i8], [64 x i8], [64 x i8], [64 x i8], [64 x i8], [64 x i8], [64 x i8], [64 x i8], [64 x i8], [64 x i8], ptr, [64 x i8], i64, i32, i64, [32 x i8], ptr, ptr, ptr, i64, ptr, [32 x i8], i64, i32, ptr, ptr, i32, i32, ptr, ptr, ptr, ptr, ptr, i64, ptr, ptr, i64, i32, i32, i32, i64, i32, i32, i64, i64, i64, %struct.anon.1, ptr, i32, ptr, ptr, ptr, i32, ptr, ptr, ptr, i32, i32, i32, i32, ptr, i64, i32, ptr, %struct.srp_ctx_st, ptr, %struct.record_layer_st, ptr, ptr, ptr, ptr, i64, i32, i32, i32, i64, i64, i64, ptr, ptr, ptr, ptr, ptr, i64, ptr, i64, ptr, i64 }
%struct.ssl_st = type { i32, ptr, ptr, ptr, %struct.CRYPTO_REF_COUNT, ptr, %struct.crypto_ex_data_st }
%struct.CRYPTO_REF_COUNT = type { i32 }
%struct.crypto_ex_data_st = type { ptr, ptr }
%struct.OSSL_TIME = type { i64 }
%struct.ossl_statem_st = type { i32, i32, i32, i32, i32, i32, i32, i32, i32, i32, i32, i32, i32, ptr, ptr, ptr, i8 }
%struct.ossl_quic_tls_callbacks_st = type { ptr, ptr, ptr, ptr, ptr, ptr }
%struct.anon = type { i64, [32 x i8], [32 x i8], ptr, ptr, i32, i32, i32, i32, [2 x i8], i32, i32, i32, i32, %struct.anon.0, [64 x i8], i64, [64 x i8], i64, i32, i32, ptr, i64, ptr, i64, i32, i8, i8, i16, ptr, i16 }
%struct.anon.0 = type { [128 x i8], i64, [128 x i8], i64, i64, i32, ptr, ptr, [4 x ptr], [4 x i16], i64, i32, ptr, i64, ptr, i64, ptr, ptr, ptr, i32, i64, ptr, i32, ptr, i64, ptr, i64, ptr, i64, ptr, ptr, ptr, ptr, i64, i64, ptr, ptr, i32, i32, i32, i32 }
%struct.ssl_dane_st = type { ptr, ptr, ptr, ptr, ptr, i32, i32, i32, i64 }
%struct.anon.1 = type { [29 x i8], ptr, ptr, ptr, i32, ptr, i16, i32, %struct.anon.2, i32, i32, i64, ptr, i64, ptr, i64, ptr, i64, ptr, i64, ptr, i64, ptr, ptr, ptr, ptr, ptr, ptr, ptr, i64, ptr, i64, i32, i32, i32, i32, ptr, i64, i32, i8, i32, [4 x i32], i32, i8, i8, i8, i8 }
%struct.anon.2 = type { ptr, ptr, ptr, i64 }
%struct.srp_ctx_st = type { ptr, ptr, ptr, ptr, ptr, ptr, ptr, ptr, ptr, ptr, ptr, ptr, ptr, ptr, i32, i64 }
%struct.record_layer_st = type { ptr, ptr, ptr, ptr, ptr, ptr, ptr, ptr, i64, i32, i64, [4 x i8], i64, i64, i8, ptr, i32, ptr, ptr, ptr, i64, i64, i64, i64, [32 x %struct.tls_record_st] }
%struct.tls_record_st = type { ptr, i32, i8, ptr, ptr, i64, i64, i16, [8 x i8] }
%struct.ssl_ctx_st = type { ptr, ptr, ptr, ptr, ptr, ptr, ptr, i64, ptr, ptr, i32, %struct.OSSL_TIME, ptr, ptr, ptr, %struct.anon.4, %struct.CRYPTO_REF_COUNT, ptr, ptr, ptr, ptr, ptr, ptr, ptr, ptr, ptr, %struct.crypto_ex_data_st, ptr, ptr, ptr, ptr, ptr, ptr, ptr, i64, i32, i32, i32, i64, ptr, ptr, i32, ptr, ptr, i32, i64, [32 x i8], ptr, ptr, ptr, i32, ptr, ptr, ptr, i64, i64, i64, i64, ptr, ptr, ptr, ptr, ptr, %struct.anon.5, ptr, ptr, ptr, ptr, %struct.srp_ctx_st, %struct.dane_ctx_st, ptr, ptr, ptr, ptr, i32, i32, ptr, ptr, i64, i64, ptr, ptr, ptr, i64, ptr, ptr, i32, ptr, ptr, ptr, [14 x i32], [24 x ptr], [14 x ptr], [14 x i64], i64, ptr, ptr, ptr, i64, i64, ptr, i64, i64, i32, i32, i32, i32, ptr, i64, ptr, i64, i64, ptr, ptr }
%struct.anon.4 = type { i32, i32, i32, i32, i32, i32, i32, i32, i32, i32, i32 }
%struct.anon.5 = type { ptr, ptr, [16 x i8], ptr, ptr, ptr, ptr, ptr, i32, i8, i64, ptr, i64, ptr, i64, ptr, i64, ptr, ptr, i64, ptr, ptr, ptr, i64, ptr, ptr, ptr, ptr, [32 x i8] }
%struct.dane_ctx_st = type { ptr, ptr, i8, i64 }

@tls11downgrade = constant [8 x i8] c"DOWNGRD\00", align 1
@tls12downgrade = constant [8 x i8] c"DOWNGRD\01", align 1

; Function Attrs: nounwind uwtable
define i32 @ssl_fill_hello_random(ptr noundef %0, i32 noundef %1, ptr noundef %2, i64 noundef %3, i32 noundef %4) #0 {
  %6 = alloca i32, align 4
  %7 = alloca ptr, align 8
  %8 = alloca i32, align 4
  %9 = alloca ptr, align 8
  %10 = alloca i64, align 8
  %11 = alloca i32, align 4
  %12 = alloca i32, align 4
  %13 = alloca i32, align 4
  %14 = alloca i32, align 4
  %15 = alloca i64, align 8
  %16 = alloca ptr, align 8
  store ptr %0, ptr %7, align 8, !tbaa !13
  store i32 %1, ptr %8, align 4, !tbaa !18
  store ptr %2, ptr %9, align 8, !tbaa !15
  store i64 %3, ptr %10, align 8, !tbaa !16
  store i32 %4, ptr %11, align 4, !tbaa !18
  call void @llvm.lifetime.start.p0(i64 4, ptr %12) #10
  store i32 0, ptr %12, align 4, !tbaa !18
  call void @llvm.lifetime.start.p0(i64 4, ptr %13) #10
  %17 = load i64, ptr %10, align 8, !tbaa !16
  %18 = icmp ult i64 %17, 4
  br i1 %18, label %19, label %20

19:                                               ; preds = %5
  store i32 0, ptr %6, align 4
  store i32 1, ptr %14, align 4
  br label %132

20:                                               ; preds = %5
  %21 = load i32, ptr %8, align 4, !tbaa !18
  %22 = icmp ne i32 %21, 0
  br i1 %22, label %23, label %30

23:                                               ; preds = %20
  %24 = load ptr, ptr %7, align 8, !tbaa !13
  %25 = getelementptr inbounds nuw %struct.ssl_connection_st, ptr %24, i32 0, i32 75
  %26 = load i32, ptr %25, align 8, !tbaa !256
  %27 = and i32 %26, 64
  %28 = icmp ne i32 %27, 0
  %29 = zext i1 %28 to i32
  store i32 %29, ptr %12, align 4, !tbaa !18
  br label %37

30:                                               ; preds = %20
  %31 = load ptr, ptr %7, align 8, !tbaa !13
  %32 = getelementptr inbounds nuw %struct.ssl_connection_st, ptr %31, i32 0, i32 75
  %33 = load i32, ptr %32, align 8, !tbaa !256
  %34 = and i32 %33, 32
  %35 = icmp ne i32 %34, 0
  %36 = zext i1 %35 to i32
  store i32 %36, ptr %12, align 4, !tbaa !18
  br label %37

37:                                               ; preds = %30, %23
  %38 = load i32, ptr %12, align 4, !tbaa !18
  %39 = icmp ne i32 %38, 0
  br i1 %39, label %40, label %76

40:                                               ; preds = %37
  call void @llvm.lifetime.start.p0(i64 8, ptr %15) #10
  %41 = call i64 @time(ptr noundef null) #10
  store i64 %41, ptr %15, align 8, !tbaa !16
  call void @llvm.lifetime.start.p0(i64 8, ptr %16) #10
  %42 = load ptr, ptr %9, align 8, !tbaa !15
  store ptr %42, ptr %16, align 8, !tbaa !15
  %43 = load i64, ptr %15, align 8, !tbaa !16
  %44 = lshr i64 %43, 24
  %45 = and i64 %44, 255
  %46 = trunc i64 %45 to i8
  %47 = load ptr, ptr %16, align 8, !tbaa !15
  %48 = getelementptr inbounds nuw i8, ptr %47, i32 1
  store ptr %48, ptr %16, align 8, !tbaa !15
  store i8 %46, ptr %47, align 1, !tbaa !217
  %49 = load i64, ptr %15, align 8, !tbaa !16
  %50 = lshr i64 %49, 16
  %51 = and i64 %50, 255
  %52 = trunc i64 %51 to i8
  %53 = load ptr, ptr %16, align 8, !tbaa !15
  %54 = getelementptr inbounds nuw i8, ptr %53, i32 1
  store ptr %54, ptr %16, align 8, !tbaa !15
  store i8 %52, ptr %53, align 1, !tbaa !217
  %55 = load i64, ptr %15, align 8, !tbaa !16
  %56 = lshr i64 %55, 8
  %57 = and i64 %56, 255
  %58 = trunc i64 %57 to i8
  %59 = load ptr, ptr %16, align 8, !tbaa !15
  %60 = getelementptr inbounds nuw i8, ptr %59, i32 1
  store ptr %60, ptr %16, align 8, !tbaa !15
  store i8 %58, ptr %59, align 1, !tbaa !217
  %61 = load i64, ptr %15, align 8, !tbaa !16
  %62 = and i64 %61, 255
  %63 = trunc i64 %62 to i8
  %64 = load ptr, ptr %16, align 8, !tbaa !15
  %65 = getelementptr inbounds nuw i8, ptr %64, i32 1
  store ptr %65, ptr %16, align 8, !tbaa !15
  store i8 %63, ptr %64, align 1, !tbaa !217
  %66 = load ptr, ptr %7, align 8, !tbaa !13
  %67 = getelementptr inbounds nuw %struct.ssl_connection_st, ptr %66, i32 0, i32 0
  %68 = getelementptr inbounds nuw %struct.ssl_st, ptr %67, i32 0, i32 1
  %69 = load ptr, ptr %68, align 8, !tbaa !240
  %70 = getelementptr inbounds nuw %struct.ssl_ctx_st, ptr %69, i32 0, i32 0
  %71 = load ptr, ptr %70, align 8, !tbaa !257
  %72 = load ptr, ptr %16, align 8, !tbaa !15
  %73 = load i64, ptr %10, align 8, !tbaa !16
  %74 = sub i64 %73, 4
  %75 = call i32 @RAND_bytes_ex(ptr noundef %71, ptr noundef %72, i64 noundef %74, i32 noundef 0)
  store i32 %75, ptr %13, align 4, !tbaa !18
  call void @llvm.lifetime.end.p0(i64 8, ptr %16) #10
  call void @llvm.lifetime.end.p0(i64 8, ptr %15) #10
  br label %86

76:                                               ; preds = %37
  %77 = load ptr, ptr %7, align 8, !tbaa !13
  %78 = getelementptr inbounds nuw %struct.ssl_connection_st, ptr %77, i32 0, i32 0
  %79 = getelementptr inbounds nuw %struct.ssl_st, ptr %78, i32 0, i32 1
  %80 = load ptr, ptr %79, align 8, !tbaa !240
  %81 = getelementptr inbounds nuw %struct.ssl_ctx_st, ptr %80, i32 0, i32 0
  %82 = load ptr, ptr %81, align 8, !tbaa !257
  %83 = load ptr, ptr %9, align 8, !tbaa !15
  %84 = load i64, ptr %10, align 8, !tbaa !16
  %85 = call i32 @RAND_bytes_ex(ptr noundef %82, ptr noundef %83, i64 noundef %84, i32 noundef 0)
  store i32 %85, ptr %13, align 4, !tbaa !18
  br label %86

86:                                               ; preds = %76, %40
  %87 = load i32, ptr %13, align 4, !tbaa !18
  %88 = icmp sgt i32 %87, 0
  br i1 %88, label %89, label %130

89:                                               ; preds = %86
  %90 = load i64, ptr %10, align 8, !tbaa !16
  %91 = icmp ult i64 8, %90
  %92 = zext i1 %91 to i32
  %93 = icmp ne i32 %92, 0
  %94 = xor i1 %93, true
  %95 = xor i1 %94, true
  %96 = zext i1 %95 to i32
  %97 = sext i32 %96 to i64
  %98 = call i64 @llvm.expect.i64(i64 %97, i64 1)
  %99 = icmp ne i64 %98, 0
  br i1 %99, label %100, label %111

100:                                              ; preds = %89
  %101 = load i64, ptr %10, align 8, !tbaa !16
  %102 = icmp ult i64 8, %101
  %103 = zext i1 %102 to i32
  %104 = icmp ne i32 %103, 0
  %105 = xor i1 %104, true
  %106 = xor i1 %105, true
  %107 = zext i1 %106 to i32
  %108 = sext i32 %107 to i64
  %109 = call i64 @llvm.expect.i64(i64 %108, i64 1)
  %110 = icmp ne i64 %109, 0
  br i1 %110, label %112, label %111

111:                                              ; preds = %100, %89
  store i32 0, ptr %6, align 4
  store i32 1, ptr %14, align 4
  br label %132

112:                                              ; preds = %100
  %113 = load i32, ptr %11, align 4, !tbaa !18
  %114 = icmp eq i32 %113, 1
  br i1 %114, label %115, label %120

115:                                              ; preds = %112
  %116 = load ptr, ptr %9, align 8, !tbaa !15
  %117 = load i64, ptr %10, align 8, !tbaa !16
  %118 = getelementptr inbounds nuw i8, ptr %116, i64 %117
  %119 = getelementptr inbounds i8, ptr %118, i64 -8
  call void @llvm.memcpy.p0.p0.i64(ptr align 1 %119, ptr align 1 @tls12downgrade, i64 8, i1 false)
  br label %129

120:                                              ; preds = %112
  %121 = load i32, ptr %11, align 4, !tbaa !18
  %122 = icmp eq i32 %121, 2
  br i1 %122, label %123, label %128

123:                                              ; preds = %120
  %124 = load ptr, ptr %9, align 8, !tbaa !15
  %125 = load i64, ptr %10, align 8, !tbaa !16
  %126 = getelementptr inbounds nuw i8, ptr %124, i64 %125
  %127 = getelementptr inbounds i8, ptr %126, i64 -8
  call void @llvm.memcpy.p0.p0.i64(ptr align 1 %127, ptr align 1 @tls11downgrade, i64 8, i1 false)
  br label %128

128:                                              ; preds = %123, %120
  br label %129

129:                                              ; preds = %128, %115
  br label %130

130:                                              ; preds = %129, %86
  %131 = load i32, ptr %13, align 4, !tbaa !18
  store i32 %131, ptr %6, align 4
  store i32 1, ptr %14, align 4
  br label %132

132:                                              ; preds = %130, %111, %19
  call void @llvm.lifetime.end.p0(i64 4, ptr %13) #10
  call void @llvm.lifetime.end.p0(i64 4, ptr %12) #10
  %133 = load i32, ptr %6, align 4
  ret i32 %133
}