; Function Attrs: nounwind uwtable
define i32 @ssl_fill_hello_random(ptr noundef readonly captures(none) %0, i32 noundef %1, ptr noundef %2, i64 noundef %3, i32 noundef %4) local_unnamed_addr #4 {
  %6 = icmp ult i64 %3, 4
  br i1 %6, label %43, label %7

7:                                                ; preds = %5
  %.not = icmp eq i32 %1, 0
  %8 = getelementptr inbounds nuw i8, ptr %0, i64 2488
  %9 = load i32, ptr %8, align 8, !tbaa !234
  %10 = select i1 %.not, i32 32, i32 64
  %11 = and i32 %9, %10
  %.not35 = icmp eq i32 %11, 0
  br i1 %.not35, label %30, label %12

12:                                               ; preds = %7
  %13 = tail call i64 @time(ptr noundef null) #18
  %14 = lshr i64 %13, 24
  %15 = trunc i64 %14 to i8
  %16 = getelementptr inbounds nuw i8, ptr %2, i64 1
  store i8 %15, ptr %2, align 1, !tbaa !203
  %17 = lshr i64 %13, 16
  %18 = trunc i64 %17 to i8
  %19 = getelementptr inbounds nuw i8, ptr %2, i64 2
  store i8 %18, ptr %16, align 1, !tbaa !203
  %20 = lshr i64 %13, 8
  %21 = trunc i64 %20 to i8
  %22 = getelementptr inbounds nuw i8, ptr %2, i64 3
  store i8 %21, ptr %19, align 1, !tbaa !203
  %23 = trunc i64 %13 to i8
  %24 = getelementptr inbounds nuw i8, ptr %2, i64 4
  store i8 %23, ptr %22, align 1, !tbaa !203
  %25 = getelementptr inbounds nuw i8, ptr %0, i64 8
  %26 = load ptr, ptr %25, align 8, !tbaa !222
  %27 = load ptr, ptr %26, align 8, !tbaa !235
  %28 = add i64 %3, -4
  %29 = tail call i32 @RAND_bytes_ex(ptr noundef %27, ptr noundef nonnull %24, i64 noundef %28, i32 noundef 0) #18
  br label %35

30:                                               ; preds = %7
  %31 = getelementptr inbounds nuw i8, ptr %0, i64 8
  %32 = load ptr, ptr %31, align 8, !tbaa !222
  %33 = load ptr, ptr %32, align 8, !tbaa !235
  %34 = tail call i32 @RAND_bytes_ex(ptr noundef %33, ptr noundef %2, i64 noundef %3, i32 noundef 0) #18
  br label %35

35:                                               ; preds = %30, %12
  %.031 = phi i32 [ %29, %12 ], [ %34, %30 ]
  %36 = icmp sgt i32 %.031, 0
  br i1 %36, label %37, label %43

37:                                               ; preds = %35
  %38 = icmp ugt i64 %3, 8
  br i1 %38, label %39, label %43, !prof !236

39:                                               ; preds = %37
  switch i32 %4, label %43 [
    i32 1, label %.sink.split
    i32 2, label %40
  ]

40:                                               ; preds = %39
  br label %.sink.split

.sink.split:                                      ; preds = %39, %40
  %.sink36 = phi i64 [ 19230764626825028, %40 ], [ 91288358664752964, %39 ]
  %41 = getelementptr inbounds nuw i8, ptr %2, i64 %3
  %42 = getelementptr inbounds i8, ptr %41, i64 -8
  store i64 %.sink36, ptr %42, align 1
  br label %43

43:                                               ; preds = %.sink.split, %35, %39, %37, %5
  %.0 = phi i32 [ 0, %5 ], [ 0, %37 ], [ %.031, %39 ], [ %.031, %35 ], [ %.031, %.sink.split ]
  ret i32 %.0
}